target datalayout = "e-m:e-p270:32:32-p271:32:32-p272:64:64-i64:64-i128:128-f80:128-n8:16:32:64-S128"
target triple = "x86_64-unknown-linux-gnu"

; Function Attrs: mustprogress nounwind uwtable
define internal noundef signext i8 @_ZL9U_FAILURE10UErrorCode(i32 noundef %code) #0 {
entry:
  %code.addr = alloca i32, align 4
  store i32 %code, ptr %code.addr, align 4
  %0 = load i32, ptr %code.addr, align 4
  %cmp = icmp sgt i32 %0, 0
  %conv = zext i1 %cmp to i8
  ret i8 %conv
}

; Function Attrs: mustprogress uwtable
define void @udat_setBooleanAttribute_75(ptr noundef %fmt, i32 noundef %attr, i8 noundef signext %newValue, ptr noundef %status) #1 {
entry:
  %fmt.addr = alloca ptr, align 8
  %attr.addr = alloca i32, align 4
  %newValue.addr = alloca i8, align 1
  %status.addr = alloca ptr, align 8
  store ptr %fmt, ptr %fmt.addr, align 8
  store i32 %attr, ptr %attr.addr, align 4
  store i8 %newValue, ptr %newValue.addr, align 1
  store ptr %status, ptr %status.addr, align 8
  %0 = load ptr, ptr %status.addr, align 8
  %1 = load i32, ptr %0, align 4
  %call = call noundef signext i8 @_ZL9U_FAILURE10UErrorCode(i32 noundef %1)
  %tobool = icmp ne i8 %call, 0
  br i1 %tobool, label %if.then, label %if.end

if.then:                                          ; preds = %entry
  br label %return

if.end:                                           ; preds = %entry
  %2 = load ptr, ptr %fmt.addr, align 8
  %3 = load i32, ptr %attr.addr, align 4
  %4 = load i8, ptr %newValue.addr, align 1
  %5 = load ptr, ptr %status.addr, align 8
  %vtable = load ptr, ptr %2, align 8
  %vfn = getelementptr inbounds ptr, ptr %vtable, i64 27
  %6 = load ptr, ptr %vfn, align 8
  %call1 = call noundef nonnull align 8 dereferenceable(352) ptr %6(ptr noundef nonnull align 8 dereferenceable(352) %2, i32 noundef %3, i8 noundef signext %4, ptr noundef nonnull align 4 dereferenceable(4) %5)
  br label %return

return:                                           ; preds = %if.end, %if.then
  ret void
}