; Function Attrs: mustprogress uwtable
define void @udat_setBooleanAttribute_75(ptr noundef %fmt, i32 noundef %attr, i8 noundef signext %newValue, ptr noundef %status) local_unnamed_addr #1 {
entry:
  %0 = load i32, ptr %status, align 4
  %cmp.i = icmp slt i32 %0, 1
  br i1 %cmp.i, label %if.end, label %return

if.end:                                           ; preds = %entry
  %vtable = load ptr, ptr %fmt, align 8
  %vfn = getelementptr inbounds i8, ptr %vtable, i64 216
  %1 = load ptr, ptr %vfn, align 8
  %call1 = tail call noundef nonnull align 8 dereferenceable(352) ptr %1(ptr noundef nonnull align 8 dereferenceable(352) %fmt, i32 noundef %attr, i8 noundef signext %newValue, ptr noundef nonnull align 4 dereferenceable(4) %status)
  br label %return

return:                                           ; preds = %entry, %if.end
  ret void
}